target datalayout = "e-m:e-p270:32:32-p271:32:32-p272:64:64-i64:64-i128:128-f80:128-n8:16:32:64-S128"
target triple = "x86_64-pc-linux-gnu"

%struct.ItemPointerData = type { %struct.BlockIdData, i16 }
%struct.BlockIdData = type { i16, i16 }
%struct.HeapTupleHeaderData = type { %union.anon.1, %struct.ItemPointerData, i16, i16, i8, [0 x i8] }
%union.anon.1 = type { %struct.HeapTupleFields }
%struct.HeapTupleFields = type { i32, i32, %union.anon.2 }
%union.anon.2 = type { i32 }

; Function Attrs: inlinehint nounwind uwtable
define internal i32 @HeapTupleHeaderGetRawXmin(ptr noundef %0) #3 {
  %2 = alloca ptr, align 8
  store ptr %0, ptr %2, align 8
  %3 = load ptr, ptr %2, align 8
  %4 = getelementptr inbounds nuw %struct.HeapTupleHeaderData, ptr %3, i32 0, i32 0
  %5 = getelementptr inbounds nuw %struct.HeapTupleFields, ptr %4, i32 0, i32 0
  %6 = load i32, ptr %5, align 4
  ret i32 %6
}

; Function Attrs: inlinehint nounwind uwtable
define internal zeroext i1 @HeapTupleHeaderXminFrozen(ptr noundef %0) #3 {
  %2 = alloca ptr, align 8
  store ptr %0, ptr %2, align 8
  %3 = load ptr, ptr %2, align 8
  %4 = getelementptr inbounds nuw %struct.HeapTupleHeaderData, ptr %3, i32 0, i32 3
  %5 = load i16, ptr %4, align 4
  %6 = zext i16 %5 to i32
  %7 = and i32 %6, 768
  %8 = icmp eq i32 %7, 768
  ret i1 %8
}

; Function Attrs: inlinehint nounwind uwtable
define internal i32 @HeapTupleHeaderGetXvac(ptr noundef %0) #3 {
  %2 = alloca i32, align 4
  %3 = alloca ptr, align 8
  store ptr %0, ptr %3, align 8
  %4 = load ptr, ptr %3, align 8
  %5 = getelementptr inbounds nuw %struct.HeapTupleHeaderData, ptr %4, i32 0, i32 3
  %6 = load i16, ptr %5, align 4
  %7 = zext i16 %6 to i32
  %8 = and i32 %7, 49152
  %9 = icmp ne i32 %8, 0
  br i1 %9, label %10, label %15

10:                                               ; preds = %1
  %11 = load ptr, ptr %3, align 8
  %12 = getelementptr inbounds nuw %struct.HeapTupleHeaderData, ptr %11, i32 0, i32 0
  %13 = getelementptr inbounds nuw %struct.HeapTupleFields, ptr %12, i32 0, i32 2
  %14 = load i32, ptr %13, align 4
  store i32 %14, ptr %2, align 4
  br label %16

15:                                               ; preds = %1
  store i32 0, ptr %2, align 4
  br label %16

16:                                               ; preds = %15, %10
  %17 = load i32, ptr %2, align 4
  ret i32 %17
}

; Function Attrs: inlinehint nounwind uwtable
define internal i32 @HeapTupleHeaderGetRawXmax(ptr noundef %0) #3 {
  %2 = alloca ptr, align 8
  store ptr %0, ptr %2, align 8
  %3 = load ptr, ptr %2, align 8
  %4 = getelementptr inbounds nuw %struct.HeapTupleHeaderData, ptr %3, i32 0, i32 0
  %5 = getelementptr inbounds nuw %struct.HeapTupleFields, ptr %4, i32 0, i32 1
  %6 = load i32, ptr %5, align 4
  ret i32 %6
}

; Function Attrs: inlinehint nounwind uwtable
define internal i32 @HeapTupleHeaderGetXmin(ptr noundef %0) #3 {
  %2 = alloca ptr, align 8
  store ptr %0, ptr %2, align 8
  %3 = load ptr, ptr %2, align 8
  %4 = call zeroext i1 @HeapTupleHeaderXminFrozen(ptr noundef %3)
  br i1 %4, label %5, label %6

5:                                                ; preds = %1
  br label %9

6:                                                ; preds = %1
  %7 = load ptr, ptr %2, align 8
  %8 = call i32 @HeapTupleHeaderGetRawXmin(ptr noundef %7)
  br label %9

9:                                                ; preds = %6, %5
  %10 = phi i32 [ 2, %5 ], [ %8, %6 ]
  ret i32 %10
}

; Function Attrs: nounwind uwtable
define dso_local zeroext i1 @heap_tuple_needs_eventual_freeze(ptr noundef %0) #0 {
  %2 = alloca i1, align 1
  %3 = alloca ptr, align 8
  %4 = alloca i32, align 4
  %5 = alloca i32, align 4
  %6 = alloca i32, align 4
  store ptr %0, ptr %3, align 8
  call void @llvm.lifetime.start.p0(i64 4, ptr %4) #10
  %7 = load ptr, ptr %3, align 8
  %8 = call i32 @HeapTupleHeaderGetXmin(ptr noundef %7)
  store i32 %8, ptr %4, align 4
  %9 = load i32, ptr %4, align 4
  %10 = icmp uge i32 %9, 3
  br i1 %10, label %11, label %12

11:                                               ; preds = %1
  store i1 true, ptr %2, align 1
  store i32 1, ptr %5, align 4
  br label %51

12:                                               ; preds = %1
  %13 = load ptr, ptr %3, align 8
  %14 = getelementptr inbounds nuw %struct.HeapTupleHeaderData, ptr %13, i32 0, i32 3
  %15 = load i16, ptr %14, align 4
  %16 = zext i16 %15 to i32
  %17 = and i32 %16, 4096
  %18 = icmp ne i32 %17, 0
  br i1 %18, label %19, label %29

19:                                               ; preds = %12
  call void @llvm.lifetime.start.p0(i64 4, ptr %6) #10
  %20 = load ptr, ptr %3, align 8
  %21 = call i32 @HeapTupleHeaderGetRawXmax(ptr noundef %20)
  store i32 %21, ptr %6, align 4
  %22 = load i32, ptr %6, align 4
  %23 = icmp ne i32 %22, 0
  br i1 %23, label %24, label %25

24:                                               ; preds = %19
  store i1 true, ptr %2, align 1
  store i32 1, ptr %5, align 4
  br label %26

25:                                               ; preds = %19
  store i32 0, ptr %5, align 4
  br label %26

26:                                               ; preds = %25, %24
  call void @llvm.lifetime.end.p0(i64 4, ptr %6) #10
  %27 = load i32, ptr %5, align 4
  switch i32 %27, label %51 [
    i32 0, label %28
  ]

28:                                               ; preds = %26
  br label %36

29:                                               ; preds = %12
  %30 = load ptr, ptr %3, align 8
  %31 = call i32 @HeapTupleHeaderGetRawXmax(ptr noundef %30)
  store i32 %31, ptr %4, align 4
  %32 = load i32, ptr %4, align 4
  %33 = icmp uge i32 %32, 3
  br i1 %33, label %34, label %35

34:                                               ; preds = %29
  store i1 true, ptr %2, align 1
  store i32 1, ptr %5, align 4
  br label %51

35:                                               ; preds = %29
  br label %36

36:                                               ; preds = %35, %28
  %37 = load ptr, ptr %3, align 8
  %38 = getelementptr inbounds nuw %struct.HeapTupleHeaderData, ptr %37, i32 0, i32 3
  %39 = load i16, ptr %38, align 4
  %40 = zext i16 %39 to i32
  %41 = and i32 %40, 49152
  %42 = icmp ne i32 %41, 0
  br i1 %42, label %43, label %50

43:                                               ; preds = %36
  %44 = load ptr, ptr %3, align 8
  %45 = call i32 @HeapTupleHeaderGetXvac(ptr noundef %44)
  store i32 %45, ptr %4, align 4
  %46 = load i32, ptr %4, align 4
  %47 = icmp uge i32 %46, 3
  br i1 %47, label %48, label %49

48:                                               ; preds = %43
  store i1 true, ptr %2, align 1
  store i32 1, ptr %5, align 4
  br label %51

49:                                               ; preds = %43
  br label %50

50:                                               ; preds = %49, %36
  store i1 false, ptr %2, align 1
  store i32 1, ptr %5, align 4
  br label %51

51:                                               ; preds = %50, %48, %34, %26, %11
  call void @llvm.lifetime.end.p0(i64 4, ptr %4) #10
  %52 = load i1, ptr %2, align 1
  ret i1 %52
}