; Function Attrs: mustprogress nofree norecurse nosync nounwind willreturn memory(argmem: read) uwtable
define dso_local noundef zeroext i1 @heap_tuple_needs_eventual_freeze(ptr noundef readonly captures(none) %0) local_unnamed_addr #7 {
  %2 = getelementptr i8, ptr %0, i64 20
  %.val.i = load i16, ptr %2, align 4
  %3 = and i16 %.val.i, 768
  %4 = icmp eq i16 %3, 768
  br i1 %4, label %HeapTupleHeaderGetXmin.exit.thread, label %HeapTupleHeaderGetXmin.exit

HeapTupleHeaderGetXmin.exit:                      ; preds = %1
  %.val2.i = load i32, ptr %0, align 4
  %5 = icmp ugt i32 %.val2.i, 2
  br i1 %5, label %16, label %HeapTupleHeaderGetXmin.exit.thread

HeapTupleHeaderGetXmin.exit.thread:               ; preds = %1, %HeapTupleHeaderGetXmin.exit
  %6 = and i16 %.val.i, 4096
  %.not = icmp eq i16 %6, 0
  %7 = getelementptr i8, ptr %0, i64 4
  %.val = load i32, ptr %7, align 4
  br i1 %.not, label %9, label %8

8:                                                ; preds = %HeapTupleHeaderGetXmin.exit.thread
  %.not12 = icmp eq i32 %.val, 0
  br i1 %.not12, label %11, label %16

9:                                                ; preds = %HeapTupleHeaderGetXmin.exit.thread
  %10 = icmp ugt i32 %.val, 2
  br i1 %10, label %16, label %11

11:                                               ; preds = %9, %8
  %.not13 = icmp ult i16 %.val.i, 16384
  br i1 %.not13, label %15, label %HeapTupleHeaderGetXvac.exit

HeapTupleHeaderGetXvac.exit:                      ; preds = %11
  %12 = getelementptr inbounds nuw i8, ptr %0, i64 8
  %13 = load i32, ptr %12, align 4
  %14 = icmp ugt i32 %13, 2
  br i1 %14, label %16, label %15

15:                                               ; preds = %HeapTupleHeaderGetXvac.exit, %11
  br label %16

16:                                               ; preds = %HeapTupleHeaderGetXvac.exit, %9, %HeapTupleHeaderGetXmin.exit, %8, %15
  %.0 = phi i1 [ false, %15 ], [ true, %8 ], [ true, %HeapTupleHeaderGetXmin.exit ], [ true, %9 ], [ true, %HeapTupleHeaderGetXvac.exit ]
  ret i1 %.0
}